target datalayout = "e-m:e-p270:32:32-p271:32:32-p272:64:64-i64:64-i128:128-f80:128-n8:16:32:64-S128"
target triple = "x86_64-pc-linux-gnu"

%struct.timeval = type { i64, i64 }
%struct._logentry = type { i32, i8, i16, i64, %struct.timeval, i32, [0 x %union.anon] }
%union.anon = type { i8 }
%struct.sockaddr_in6 = type { i16, i16, i32, %struct.in6_addr, i32 }
%struct.in6_addr = type { %union.anon.9 }
%union.anon.9 = type { [4 x i32] }
%struct.logentry_conn_event = type { i32, i32, i32, %struct.sockaddr_in6 }
%struct.sockaddr_in = type { i16, i16, %struct.in_addr, [8 x i8] }
%struct.in_addr = type { i32 }

@__const._logger_parse_cne.transport_map = private unnamed_addr constant [3 x ptr] [ptr @.str.44, ptr @.str.45, ptr @.str.46], align 16
@.str.47 = private unnamed_addr constant [72 x i8] c"ts=%lld.%d gid=%llu type=conn_new rip=%s rport=%hu transport=%s cfd=%d\0A\00", align 1
@.str.48 = private unnamed_addr constant [5 x i8] c"unix\00", align 1

; Function Attrs: inlinehint nounwind uwtable
define internal zeroext i16 @__bswap_16(i16 noundef zeroext %0) #10 {
  %2 = alloca i16, align 2
  store i16 %0, ptr %2, align 2, !tbaa !38
  %3 = load i16, ptr %2, align 2, !tbaa !38
  %4 = zext i16 %3 to i32
  %5 = ashr i32 %4, 8
  %6 = and i32 %5, 255
  %7 = load i16, ptr %2, align 2, !tbaa !38
  %8 = zext i16 %7 to i32
  %9 = and i32 %8, 255
  %10 = shl i32 %9, 8
  %11 = or i32 %6, %10
  %12 = trunc i32 %11 to i16
  ret i16 %12
}

; Function Attrs: nounwind uwtable
define internal i32 @_logger_util_addr_endpoint(ptr noundef %0, ptr noundef %1, i64 noundef %2, ptr noundef %3) #0 {
  %5 = alloca ptr, align 8
  %6 = alloca ptr, align 8
  %7 = alloca i64, align 8
  %8 = alloca ptr, align 8
  store ptr %0, ptr %5, align 8, !tbaa !120
  store ptr %1, ptr %6, align 8, !tbaa !63
  store i64 %2, ptr %7, align 8, !tbaa !4
  store ptr %3, ptr %8, align 8, !tbaa !132
  %9 = load ptr, ptr %6, align 8, !tbaa !63
  %10 = load i64, ptr %7, align 8, !tbaa !4
  call void @llvm.memset.p0.i64(ptr align 1 %9, i8 0, i64 %10, i1 false)
  %11 = load ptr, ptr %8, align 8, !tbaa !132
  store i16 0, ptr %11, align 2, !tbaa !38
  %12 = load ptr, ptr %5, align 8, !tbaa !120
  %13 = getelementptr inbounds nuw %struct.sockaddr_in6, ptr %12, i32 0, i32 0
  %14 = load i16, ptr %13, align 4, !tbaa !134
  %15 = zext i16 %14 to i32
  switch i32 %15, label %45 [
    i32 2, label %16
    i32 10, label %29
    i32 0, label %42
    i32 1, label %42
  ]

16:                                               ; preds = %4
  %17 = load ptr, ptr %5, align 8, !tbaa !120
  %18 = getelementptr inbounds nuw %struct.sockaddr_in, ptr %17, i32 0, i32 2
  %19 = load ptr, ptr %6, align 8, !tbaa !63
  %20 = load i64, ptr %7, align 8, !tbaa !4
  %21 = sub i64 %20, 1
  %22 = trunc i64 %21 to i32
  %23 = call ptr @inet_ntop(i32 noundef 2, ptr noundef %18, ptr noundef %19, i32 noundef %22) #11
  %24 = load ptr, ptr %5, align 8, !tbaa !120
  %25 = getelementptr inbounds nuw %struct.sockaddr_in, ptr %24, i32 0, i32 1
  %26 = load i16, ptr %25, align 2, !tbaa !135
  %27 = call zeroext i16 @__bswap_16(i16 noundef zeroext %26)
  %28 = load ptr, ptr %8, align 8, !tbaa !132
  store i16 %27, ptr %28, align 2, !tbaa !38
  br label %45

29:                                               ; preds = %4
  %30 = load ptr, ptr %5, align 8, !tbaa !120
  %31 = getelementptr inbounds nuw %struct.sockaddr_in6, ptr %30, i32 0, i32 3
  %32 = load ptr, ptr %6, align 8, !tbaa !63
  %33 = load i64, ptr %7, align 8, !tbaa !4
  %34 = sub i64 %33, 1
  %35 = trunc i64 %34 to i32
  %36 = call ptr @inet_ntop(i32 noundef 10, ptr noundef %31, ptr noundef %32, i32 noundef %35) #11
  %37 = load ptr, ptr %5, align 8, !tbaa !120
  %38 = getelementptr inbounds nuw %struct.sockaddr_in6, ptr %37, i32 0, i32 1
  %39 = load i16, ptr %38, align 2, !tbaa !138
  %40 = call zeroext i16 @__bswap_16(i16 noundef zeroext %39)
  %41 = load ptr, ptr %8, align 8, !tbaa !132
  store i16 %40, ptr %41, align 2, !tbaa !38
  br label %45

42:                                               ; preds = %4, %4
  %43 = load ptr, ptr %6, align 8, !tbaa !63
  %44 = call ptr @strncpy(ptr noundef %43, ptr noundef @.str.48, i64 noundef 5) #11
  br label %45

45:                                               ; preds = %4, %42, %29, %16
  ret i32 0
}

; Function Attrs: nounwind uwtable
define internal i32 @_logger_parse_cne(ptr noundef %0, ptr noundef %1) #0 {
  %3 = alloca ptr, align 8
  %4 = alloca ptr, align 8
  %5 = alloca i32, align 4
  %6 = alloca i16, align 2
  %7 = alloca [64 x i8], align 16
  %8 = alloca ptr, align 8
  %9 = alloca [3 x ptr], align 16
  store ptr %0, ptr %3, align 8, !tbaa !33
  store ptr %1, ptr %4, align 8, !tbaa !63
  call void @llvm.lifetime.start.p0(i64 4, ptr %5) #11
  call void @llvm.lifetime.start.p0(i64 2, ptr %6) #11
  store i16 0, ptr %6, align 2, !tbaa !38
  call void @llvm.lifetime.start.p0(i64 64, ptr %7) #11
  call void @llvm.lifetime.start.p0(i64 8, ptr %8) #11
  %10 = load ptr, ptr %3, align 8, !tbaa !33
  %11 = getelementptr inbounds nuw %struct._logentry, ptr %10, i32 0, i32 6
  %12 = getelementptr inbounds [0 x %union.anon], ptr %11, i64 0, i64 0
  store ptr %12, ptr %8, align 8, !tbaa !122
  call void @llvm.lifetime.start.p0(i64 24, ptr %9) #11
  call void @llvm.memcpy.p0.p0.i64(ptr align 16 %9, ptr align 16 @__const._logger_parse_cne.transport_map, i64 24, i1 false)
  %13 = load ptr, ptr %8, align 8, !tbaa !122
  %14 = getelementptr inbounds nuw %struct.logentry_conn_event, ptr %13, i32 0, i32 3
  %15 = getelementptr inbounds [64 x i8], ptr %7, i64 0, i64 0
  %16 = call i32 @_logger_util_addr_endpoint(ptr noundef %14, ptr noundef %15, i64 noundef 64, ptr noundef %6)
  %17 = load ptr, ptr %4, align 8, !tbaa !63
  %18 = load ptr, ptr %3, align 8, !tbaa !33
  %19 = getelementptr inbounds nuw %struct._logentry, ptr %18, i32 0, i32 4
  %20 = getelementptr inbounds nuw %struct.timeval, ptr %19, i32 0, i32 0
  %21 = load i64, ptr %20, align 8, !tbaa !108
  %22 = load ptr, ptr %3, align 8, !tbaa !33
  %23 = getelementptr inbounds nuw %struct._logentry, ptr %22, i32 0, i32 4
  %24 = getelementptr inbounds nuw %struct.timeval, ptr %23, i32 0, i32 1
  %25 = load i64, ptr %24, align 8, !tbaa !109
  %26 = trunc i64 %25 to i32
  %27 = load ptr, ptr %3, align 8, !tbaa !33
  %28 = getelementptr inbounds nuw %struct._logentry, ptr %27, i32 0, i32 3
  %29 = load i64, ptr %28, align 8, !tbaa !4
  %30 = getelementptr inbounds [64 x i8], ptr %7, i64 0, i64 0
  %31 = load i16, ptr %6, align 2, !tbaa !38
  %32 = zext i16 %31 to i32
  %33 = load ptr, ptr %8, align 8, !tbaa !122
  %34 = getelementptr inbounds nuw %struct.logentry_conn_event, ptr %33, i32 0, i32 0
  %35 = load i32, ptr %34, align 4, !tbaa !126
  %36 = sext i32 %35 to i64
  %37 = getelementptr inbounds [3 x ptr], ptr %9, i64 0, i64 %36
  %38 = load ptr, ptr %37, align 8, !tbaa !63
  %39 = load ptr, ptr %8, align 8, !tbaa !122
  %40 = getelementptr inbounds nuw %struct.logentry_conn_event, ptr %39, i32 0, i32 2
  %41 = load i32, ptr %40, align 4, !tbaa !124
  %42 = call i32 (ptr, i64, ptr, ...) @snprintf(ptr noundef %17, i64 noundef 4096, ptr noundef @.str.47, i64 noundef %21, i32 noundef %26, i64 noundef %29, ptr noundef %30, i32 noundef %32, ptr noundef %38, i32 noundef %41) #11
  store i32 %42, ptr %5, align 4, !tbaa !11
  %43 = load i32, ptr %5, align 4, !tbaa !11
  call void @llvm.lifetime.end.p0(i64 24, ptr %9) #11
  call void @llvm.lifetime.end.p0(i64 8, ptr %8) #11
  call void @llvm.lifetime.end.p0(i64 64, ptr %7) #11
  call void @llvm.lifetime.end.p0(i64 2, ptr %6) #11
  call void @llvm.lifetime.end.p0(i64 4, ptr %5) #11
  ret i32 %43
}