; Function Attrs: nounwind uwtable
define internal noundef i32 @_logger_parse_cne(ptr noundef %0, ptr noundef writeonly captures(none) %1) #1 {
  %3 = alloca [64 x i8], align 16
  call void @llvm.lifetime.start.p0(i64 64, ptr nonnull %3) #18
  %4 = getelementptr inbounds nuw i8, ptr %0, i64 48
  call void @llvm.memset.p0.i64(ptr noundef nonnull align 16 dereferenceable(64) %3, i8 0, i64 64, i1 false)
  %5 = load i16, ptr %4, align 4, !tbaa !102
  switch i16 %5, label %_logger_util_addr_endpoint.exit [
    i16 2, label %6
    i16 10, label %11
    i16 0, label %16
    i16 1, label %16
  ]

6:                                                ; preds = %2
  %7 = getelementptr inbounds nuw i8, ptr %0, i64 52
  %8 = call ptr @inet_ntop(i32 noundef 2, ptr noundef nonnull %7, ptr noundef nonnull %3, i32 noundef 63) #18
  %9 = getelementptr inbounds nuw i8, ptr %0, i64 50
  %10 = load i16, ptr %9, align 2, !tbaa !103
  %rev.i.i = call noundef i16 @llvm.bswap.i16(i16 %10)
  br label %_logger_util_addr_endpoint.exit

11:                                               ; preds = %2
  %12 = getelementptr inbounds nuw i8, ptr %0, i64 56
  %13 = call ptr @inet_ntop(i32 noundef 10, ptr noundef nonnull %12, ptr noundef nonnull %3, i32 noundef 63) #18
  %14 = getelementptr inbounds nuw i8, ptr %0, i64 50
  %15 = load i16, ptr %14, align 2, !tbaa !106
  %rev.i14.i = call noundef i16 @llvm.bswap.i16(i16 %15)
  br label %_logger_util_addr_endpoint.exit

16:                                               ; preds = %2, %2
  call void @llvm.memcpy.p0.p0.i64(ptr noundef nonnull align 16 dereferenceable(5) %3, ptr noundef nonnull align 1 dereferenceable(5) @.str.48, i64 noundef 5, i1 false) #18
  br label %_logger_util_addr_endpoint.exit

_logger_util_addr_endpoint.exit:                  ; preds = %2, %6, %11, %16
  %.0 = phi i16 [ 0, %2 ], [ 0, %16 ], [ %rev.i14.i, %11 ], [ %rev.i.i, %6 ]
  %17 = getelementptr inbounds nuw i8, ptr %0, i64 36
  %18 = getelementptr inbounds nuw i8, ptr %0, i64 16
  %19 = load i64, ptr %18, align 8, !tbaa !91
  %20 = getelementptr inbounds nuw i8, ptr %0, i64 24
  %21 = load i64, ptr %20, align 8, !tbaa !92
  %22 = trunc i64 %21 to i32
  %23 = getelementptr inbounds nuw i8, ptr %0, i64 8
  %24 = load i64, ptr %23, align 8, !tbaa !13
  %25 = zext i16 %.0 to i32
  %26 = load i32, ptr %17, align 4, !tbaa !100
  %27 = sext i32 %26 to i64
  %28 = getelementptr inbounds [3 x ptr], ptr @__const._logger_parse_cce.transport_map, i64 0, i64 %27
  %29 = load ptr, ptr %28, align 8, !tbaa !95
  %30 = getelementptr inbounds nuw i8, ptr %0, i64 44
  %31 = load i32, ptr %30, align 4, !tbaa !98
  %32 = call i32 (ptr, i64, ptr, ...) @snprintf(ptr noundef nonnull dereferenceable(1) %1, i64 noundef 4096, ptr noundef nonnull @.str.47, i64 noundef %19, i32 noundef %22, i64 noundef %24, ptr noundef nonnull %3, i32 noundef %25, ptr noundef %29, i32 noundef %31) #18
  call void @llvm.lifetime.end.p0(i64 64, ptr nonnull %3) #18
  ret i32 %32
}